target datalayout = "e-m:e-p270:32:32-p271:32:32-p272:64:64-i64:64-i128:128-f80:128-n8:16:32:64-S128"
target triple = "x86_64-unknown-linux-gnu"

@_ZN7rocksdb18RibbonFilterPolicyC1Edi = unnamed_addr alias void (ptr, double, i32), ptr @_ZN7rocksdb18RibbonFilterPolicyC2Edi

; Function Attrs: mustprogress uwtable
define noundef ptr @_ZN7rocksdb21NewRibbonFilterPolicyEdi(double noundef %bloom_equivalent_bits_per_key, i32 noundef %bloom_before_level) #0 personality ptr @__gxx_personality_v0 {
entry:
  %bloom_equivalent_bits_per_key.addr = alloca double, align 8
  %bloom_before_level.addr = alloca i32, align 4
  %exn.slot = alloca ptr, align 8
  %ehselector.slot = alloca i32, align 4
  store double %bloom_equivalent_bits_per_key, ptr %bloom_equivalent_bits_per_key.addr, align 8
  store i32 %bloom_before_level, ptr %bloom_before_level.addr, align 4
  %call = call noalias noundef nonnull ptr @_Znwm(i64 noundef 72) #20
  %0 = load double, ptr %bloom_equivalent_bits_per_key.addr, align 8
  %1 = load i32, ptr %bloom_before_level.addr, align 4
  invoke void @_ZN7rocksdb18RibbonFilterPolicyC1Edi(ptr noundef nonnull align 8 dereferenceable(68) %call, double noundef %0, i32 noundef %1)
          to label %invoke.cont unwind label %lpad

invoke.cont:                                      ; preds = %entry
  ret ptr %call

lpad:                                             ; preds = %entry
  %2 = landingpad { ptr, i32 }
          cleanup
  %3 = extractvalue { ptr, i32 } %2, 0
  store ptr %3, ptr %exn.slot, align 8
  %4 = extractvalue { ptr, i32 } %2, 1
  store i32 %4, ptr %ehselector.slot, align 4
  call void @_ZdlPv(ptr noundef %call) #21
  br label %eh.resume

eh.resume:                                        ; preds = %lpad
  %exn = load ptr, ptr %exn.slot, align 8
  %sel = load i32, ptr %ehselector.slot, align 4
  %lpad.val = insertvalue { ptr, i32 } poison, ptr %exn, 0
  %lpad.val1 = insertvalue { ptr, i32 } %lpad.val, i32 %sel, 1
  resume { ptr, i32 } %lpad.val1
}