; Function Attrs: mustprogress uwtable
define noundef ptr @_ZN7rocksdb21NewRibbonFilterPolicyEdi(double noundef %bloom_equivalent_bits_per_key, i32 noundef %bloom_before_level) local_unnamed_addr #3 personality ptr @__gxx_personality_v0 {
entry:
  %call = tail call noalias noundef nonnull dereferenceable(72) ptr @_Znwm(i64 noundef 72) #34
  invoke void @_ZN7rocksdb18RibbonFilterPolicyC1Edi(ptr noundef nonnull align 8 dereferenceable(68) %call, double noundef %bloom_equivalent_bits_per_key, i32 noundef %bloom_before_level)
          to label %invoke.cont unwind label %lpad

invoke.cont:                                      ; preds = %entry
  ret ptr %call

lpad:                                             ; preds = %entry
  %0 = landingpad { ptr, i32 }
          cleanup
  tail call void @_ZdlPv(ptr noundef nonnull %call) #31
  resume { ptr, i32 } %0
}